target datalayout = "e-m:e-p270:32:32-p271:32:32-p272:64:64-i64:64-i128:128-f80:128-n8:16:32:64-S128"
target triple = "x86_64-pc-linux-gnu"

%struct.ResultRelInfo = type { i32, i32, ptr, i32, ptr, ptr, i16, ptr, i8, ptr, ptr, ptr, i8, i8, ptr, ptr, ptr, ptr, ptr, ptr, ptr, ptr, ptr, ptr, i8, i32, i32, i32, ptr, ptr, ptr, ptr, ptr, ptr, ptr, i32, i32, ptr, ptr, ptr, ptr, [3 x ptr], ptr, ptr, ptr, i8, ptr, i8, ptr, ptr, ptr, ptr }
%struct.RelationData = type { %struct.RelFileLocator, ptr, i32, i32, i8, i8, i8, i8, i8, i32, i32, i32, i32, ptr, ptr, i32, %struct.LockInfoData, ptr, ptr, ptr, ptr, ptr, i8, ptr, ptr, ptr, ptr, ptr, ptr, i32, ptr, i8, ptr, ptr, i32, i8, i32, ptr, i8, ptr, ptr, ptr, ptr, ptr, ptr, ptr, i32, ptr, ptr, ptr, ptr, ptr, ptr, ptr, ptr, ptr, ptr, ptr, ptr, ptr, ptr, ptr, ptr, ptr, ptr, ptr, i32, i8, ptr }
%struct.RelFileLocator = type { i32, i32, i32 }
%struct.LockInfoData = type { %struct.LockRelId }
%struct.LockRelId = type { i32, i32 }
%struct.ModifyTableState = type { %struct.PlanState, i32, i8, i8, i32, ptr, ptr, %struct.EPQState, i8, i32, i32, i32, ptr, ptr, ptr, ptr, ptr, i32, ptr, ptr, double, double, double, ptr, ptr, ptr }
%struct.PlanState = type { i32, ptr, ptr, ptr, ptr, ptr, ptr, ptr, ptr, ptr, ptr, ptr, ptr, ptr, ptr, ptr, ptr, ptr, i8, ptr, ptr, ptr, ptr, ptr, i8, i8, i8, i8, i8, i8, i8, i8 }
%struct.EPQState = type { ptr, i32, ptr, ptr, ptr, ptr, ptr, ptr, ptr, ptr, ptr, ptr, ptr }
%struct.MTTargetRelLookup = type { i32, i32 }

@.str.1 = private unnamed_addr constant [18 x i8] c"nodeModifyTable.c\00", align 1
@.str.2 = private unnamed_addr constant [33 x i8] c"incorrect result relation OID %u\00", align 1
@__func__.ExecLookupResultRelByOid = private unnamed_addr constant [25 x i8] c"ExecLookupResultRelByOid\00", align 1

; Function Attrs: nounwind uwtable
define dso_local ptr @ExecLookupResultRelByOid(ptr noundef %0, i32 noundef %1, i1 noundef zeroext %2, i1 noundef zeroext %3) #0 {
  %5 = alloca ptr, align 8
  %6 = alloca ptr, align 8
  %7 = alloca i32, align 4
  %8 = alloca i8, align 1
  %9 = alloca i8, align 1
  %10 = alloca ptr, align 8
  %11 = alloca i32, align 4
  %12 = alloca i32, align 4
  %13 = alloca ptr, align 8
  store ptr %0, ptr %6, align 8
  store i32 %1, ptr %7, align 4
  %14 = zext i1 %2 to i8
  store i8 %14, ptr %8, align 1
  %15 = zext i1 %3 to i8
  store i8 %15, ptr %9, align 1
  %16 = load ptr, ptr %6, align 8
  %17 = getelementptr inbounds nuw %struct.ModifyTableState, ptr %16, i32 0, i32 12
  %18 = load ptr, ptr %17, align 8
  %19 = icmp ne ptr %18, null
  br i1 %19, label %20, label %52

20:                                               ; preds = %4
  call void @llvm.lifetime.start.p0(i64 8, ptr %10) #8
  %21 = load ptr, ptr %6, align 8
  %22 = getelementptr inbounds nuw %struct.ModifyTableState, ptr %21, i32 0, i32 12
  %23 = load ptr, ptr %22, align 8
  %24 = call ptr @hash_search(ptr noundef %23, ptr noundef %7, i32 noundef 0, ptr noundef null)
  store ptr %24, ptr %10, align 8
  %25 = load ptr, ptr %10, align 8
  %26 = icmp ne ptr %25, null
  br i1 %26, label %27, label %48

27:                                               ; preds = %20
  %28 = load i8, ptr %9, align 1, !range !4, !noundef !5
  %29 = trunc i8 %28 to i1
  br i1 %29, label %30, label %39

30:                                               ; preds = %27
  %31 = load i32, ptr %7, align 4
  %32 = load ptr, ptr %6, align 8
  %33 = getelementptr inbounds nuw %struct.ModifyTableState, ptr %32, i32 0, i32 10
  store i32 %31, ptr %33, align 8
  %34 = load ptr, ptr %10, align 8
  %35 = getelementptr inbounds nuw %struct.MTTargetRelLookup, ptr %34, i32 0, i32 1
  %36 = load i32, ptr %35, align 4
  %37 = load ptr, ptr %6, align 8
  %38 = getelementptr inbounds nuw %struct.ModifyTableState, ptr %37, i32 0, i32 11
  store i32 %36, ptr %38, align 4
  br label %39

39:                                               ; preds = %30, %27
  %40 = load ptr, ptr %6, align 8
  %41 = getelementptr inbounds nuw %struct.ModifyTableState, ptr %40, i32 0, i32 5
  %42 = load ptr, ptr %41, align 8
  %43 = load ptr, ptr %10, align 8
  %44 = getelementptr inbounds nuw %struct.MTTargetRelLookup, ptr %43, i32 0, i32 1
  %45 = load i32, ptr %44, align 4
  %46 = sext i32 %45 to i64
  %47 = getelementptr inbounds %struct.ResultRelInfo, ptr %42, i64 %46
  store ptr %47, ptr %5, align 8
  store i32 1, ptr %11, align 4
  br label %49

48:                                               ; preds = %20
  store i32 0, ptr %11, align 4
  br label %49

49:                                               ; preds = %48, %39
  call void @llvm.lifetime.end.p0(i64 8, ptr %10) #8
  %50 = load i32, ptr %11, align 4
  switch i32 %50, label %113 [
    i32 0, label %51
    i32 1, label %111
  ]

51:                                               ; preds = %49
  br label %96

52:                                               ; preds = %4
  call void @llvm.lifetime.start.p0(i64 4, ptr %12) #8
  store i32 0, ptr %12, align 4
  br label %53

53:                                               ; preds = %90, %52
  %54 = load i32, ptr %12, align 4
  %55 = load ptr, ptr %6, align 8
  %56 = getelementptr inbounds nuw %struct.ModifyTableState, ptr %55, i32 0, i32 4
  %57 = load i32, ptr %56, align 8
  %58 = icmp slt i32 %54, %57
  br i1 %58, label %60, label %59

59:                                               ; preds = %53
  store i32 2, ptr %11, align 4
  br label %93

60:                                               ; preds = %53
  call void @llvm.lifetime.start.p0(i64 8, ptr %13) #8
  %61 = load ptr, ptr %6, align 8
  %62 = getelementptr inbounds nuw %struct.ModifyTableState, ptr %61, i32 0, i32 5
  %63 = load ptr, ptr %62, align 8
  %64 = load i32, ptr %12, align 4
  %65 = sext i32 %64 to i64
  %66 = getelementptr inbounds %struct.ResultRelInfo, ptr %63, i64 %65
  store ptr %66, ptr %13, align 8
  %67 = load ptr, ptr %13, align 8
  %68 = getelementptr inbounds nuw %struct.ResultRelInfo, ptr %67, i32 0, i32 2
  %69 = load ptr, ptr %68, align 8
  %70 = getelementptr inbounds nuw %struct.RelationData, ptr %69, i32 0, i32 15
  %71 = load i32, ptr %70, align 8
  %72 = load i32, ptr %7, align 4
  %73 = icmp eq i32 %71, %72
  br i1 %73, label %74, label %86

74:                                               ; preds = %60
  %75 = load i8, ptr %9, align 1, !range !4, !noundef !5
  %76 = trunc i8 %75 to i1
  br i1 %76, label %77, label %84

77:                                               ; preds = %74
  %78 = load i32, ptr %7, align 4
  %79 = load ptr, ptr %6, align 8
  %80 = getelementptr inbounds nuw %struct.ModifyTableState, ptr %79, i32 0, i32 10
  store i32 %78, ptr %80, align 8
  %81 = load i32, ptr %12, align 4
  %82 = load ptr, ptr %6, align 8
  %83 = getelementptr inbounds nuw %struct.ModifyTableState, ptr %82, i32 0, i32 11
  store i32 %81, ptr %83, align 4
  br label %84

84:                                               ; preds = %77, %74
  %85 = load ptr, ptr %13, align 8
  store ptr %85, ptr %5, align 8
  store i32 1, ptr %11, align 4
  br label %87

86:                                               ; preds = %60
  store i32 0, ptr %11, align 4
  br label %87

87:                                               ; preds = %86, %84
  call void @llvm.lifetime.end.p0(i64 8, ptr %13) #8
  %88 = load i32, ptr %11, align 4
  switch i32 %88, label %93 [
    i32 0, label %89
  ]

89:                                               ; preds = %87
  br label %90

90:                                               ; preds = %89
  %91 = load i32, ptr %12, align 4
  %92 = add i32 %91, 1
  store i32 %92, ptr %12, align 4
  br label %53, !llvm.loop !9

93:                                               ; preds = %87, %59
  call void @llvm.lifetime.end.p0(i64 4, ptr %12) #8
  %94 = load i32, ptr %11, align 4
  switch i32 %94, label %113 [
    i32 2, label %95
    i32 1, label %111
  ]

95:                                               ; preds = %93
  br label %96

96:                                               ; preds = %95, %51
  %97 = load i8, ptr %8, align 1, !range !4, !noundef !5
  %98 = trunc i8 %97 to i1
  br i1 %98, label %110, label %99

99:                                               ; preds = %96
  br label %100

100:                                              ; preds = %99
  br i1 true, label %101, label %103

101:                                              ; preds = %100
  %102 = call zeroext i1 @errstart_cold(i32 noundef 21, ptr noundef null) #9
  br i1 %102, label %105, label %108

103:                                              ; preds = %100
  %104 = call zeroext i1 @errstart(i32 noundef 21, ptr noundef null)
  br i1 %104, label %105, label %108

105:                                              ; preds = %103, %101
  %106 = load i32, ptr %7, align 4
  %107 = call i32 (ptr, ...) @errmsg_internal(ptr noundef @.str.2, i32 noundef %106)
  call void @errfinish(ptr noundef @.str.1, i32 noundef 4460, ptr noundef @__func__.ExecLookupResultRelByOid)
  br label %108

108:                                              ; preds = %105, %103, %101
  unreachable

109:                                              ; No predecessors!
  br label %110

110:                                              ; preds = %109, %96
  store ptr null, ptr %5, align 8
  br label %111

111:                                              ; preds = %110, %93, %49
  %112 = load ptr, ptr %5, align 8
  ret ptr %112

113:                                              ; preds = %93, %49
  unreachable
}