; Function Attrs: nounwind uwtable
define dso_local ptr @ExecLookupResultRelByOid(ptr noundef captures(none) %0, i32 noundef %1, i1 noundef zeroext %2, i1 noundef zeroext %3) local_unnamed_addr #0 {
  %5 = alloca i32, align 4
  store i32 %1, ptr %5, align 4
  %6 = getelementptr inbounds nuw i8, ptr %0, i64 352
  %7 = load ptr, ptr %6, align 8
  %.not = icmp eq ptr %7, null
  br i1 %.not, label %.preheader, label %21

.preheader:                                       ; preds = %4
  %8 = getelementptr inbounds nuw i8, ptr %0, i64 208
  %9 = load i32, ptr %8, align 8
  %10 = icmp sgt i32 %9, 0
  br i1 %10, label %.lr.ph, label %._crit_edge

.lr.ph:                                           ; preds = %.preheader
  %11 = getelementptr inbounds nuw i8, ptr %0, i64 216
  %12 = load ptr, ptr %11, align 8
  %13 = getelementptr inbounds nuw i8, ptr %0, i64 344
  %14 = getelementptr inbounds nuw i8, ptr %0, i64 348
  %wide.trip.count61 = zext nneg i32 %9 to i64
  br i1 %3, label %.lr.ph.split, label %.lr.ph.split.us

.lr.ph.split.us:                                  ; preds = %.lr.ph, %20
  %indvars.iv = phi i64 [ %indvars.iv.next, %20 ], [ 0, %.lr.ph ]
  %15 = getelementptr inbounds nuw %struct.ResultRelInfo, ptr %12, i64 %indvars.iv
  %16 = getelementptr inbounds nuw i8, ptr %15, i64 8
  %17 = load ptr, ptr %16, align 8
  %18 = getelementptr inbounds nuw i8, ptr %17, i64 72
  %19 = load i32, ptr %18, align 8
  %.not31.us = icmp eq i32 %19, %1
  br i1 %.not31.us, label %.thread43, label %20

20:                                               ; preds = %.lr.ph.split.us
  %indvars.iv.next = add nuw nsw i64 %indvars.iv, 1
  %exitcond.not = icmp eq i64 %indvars.iv.next, %wide.trip.count61
  br i1 %exitcond.not, label %._crit_edge, label %.lr.ph.split.us, !llvm.loop !9

21:                                               ; preds = %4
  %22 = call ptr @hash_search(ptr noundef nonnull %7, ptr noundef nonnull %5, i32 noundef 0, ptr noundef null) #9
  %.not32.not = icmp eq ptr %22, null
  br i1 %.not32.not, label %35, label %23

23:                                               ; preds = %21
  br i1 %3, label %24, label %..thread_crit_edge

..thread_crit_edge:                               ; preds = %23
  %.phi.trans.insert = getelementptr inbounds nuw i8, ptr %22, i64 4
  %.pre = load i32, ptr %.phi.trans.insert, align 4
  br label %.thread

24:                                               ; preds = %23
  %25 = load i32, ptr %5, align 4
  %26 = getelementptr inbounds nuw i8, ptr %0, i64 344
  store i32 %25, ptr %26, align 8
  %27 = getelementptr inbounds nuw i8, ptr %22, i64 4
  %28 = load i32, ptr %27, align 4
  %29 = getelementptr inbounds nuw i8, ptr %0, i64 348
  store i32 %28, ptr %29, align 4
  br label %.thread

.thread:                                          ; preds = %..thread_crit_edge, %24
  %30 = phi i32 [ %.pre, %..thread_crit_edge ], [ %28, %24 ]
  %31 = getelementptr inbounds nuw i8, ptr %0, i64 216
  %32 = load ptr, ptr %31, align 8
  %33 = sext i32 %30 to i64
  %34 = getelementptr inbounds %struct.ResultRelInfo, ptr %32, i64 %33
  br label %.thread43

35:                                               ; preds = %21
  br i1 %2, label %.thread43, label %42

36:                                               ; preds = %.lr.ph.split
  %indvars.iv.next59 = add nuw nsw i64 %indvars.iv58, 1
  %exitcond62.not = icmp eq i64 %indvars.iv.next59, %wide.trip.count61
  br i1 %exitcond62.not, label %._crit_edge, label %.lr.ph.split, !llvm.loop !9

.lr.ph.split:                                     ; preds = %.lr.ph, %36
  %indvars.iv58 = phi i64 [ %indvars.iv.next59, %36 ], [ 0, %.lr.ph ]
  %37 = getelementptr inbounds nuw %struct.ResultRelInfo, ptr %12, i64 %indvars.iv58
  %38 = getelementptr inbounds nuw i8, ptr %37, i64 8
  %39 = load ptr, ptr %38, align 8
  %40 = getelementptr inbounds nuw i8, ptr %39, i64 72
  %41 = load i32, ptr %40, align 8
  %.not31 = icmp eq i32 %41, %1
  br i1 %.not31, label %.thread43.loopexit, label %36

._crit_edge:                                      ; preds = %20, %36, %.preheader
  br i1 %2, label %.thread43, label %42

42:                                               ; preds = %35, %._crit_edge
  %43 = call zeroext i1 @errstart_cold(i32 noundef 21, ptr noundef null) #10
  call void @llvm.assume(i1 %43)
  %44 = load i32, ptr %5, align 4
  %45 = call i32 (ptr, ...) @errmsg_internal(ptr noundef nonnull @.str.2, i32 noundef %44) #9
  call void @errfinish(ptr noundef nonnull @.str.1, i32 noundef 4460, ptr noundef nonnull @__func__.ExecLookupResultRelByOid) #9
  unreachable

.thread43.loopexit:                               ; preds = %.lr.ph.split
  store i32 %1, ptr %13, align 8
  %46 = trunc nuw nsw i64 %indvars.iv58 to i32
  store i32 %46, ptr %14, align 4
  br label %.thread43

.thread43:                                        ; preds = %.lr.ph.split.us, %.thread43.loopexit, %.thread, %35, %._crit_edge
  %.1 = phi ptr [ null, %35 ], [ null, %._crit_edge ], [ %34, %.thread ], [ %37, %.thread43.loopexit ], [ %15, %.lr.ph.split.us ]
  ret ptr %.1
}